target datalayout = "e-m:e-p270:32:32-p271:32:32-p272:64:64-i64:64-i128:128-f80:128-n8:16:32:64-S128"
target triple = "x86_64-pc-linux-gnu"

%struct.enc_struct = type { i32, i32, i32, i32, i32, ptr, ptr, ptr, [4384 x i8] }

@.str.2 = private unnamed_addr constant [32 x i8] c"../openssl/crypto/evp/bio_enc.c\00", align 1

; Function Attrs: nounwind uwtable
define internal i32 @enc_free(ptr noundef %0) #0 {
  %2 = alloca i32, align 4
  %3 = alloca ptr, align 8
  %4 = alloca ptr, align 8
  %5 = alloca i32, align 4
  store ptr %0, ptr %3, align 8, !tbaa !3
  call void @llvm.lifetime.start.p0(i64 8, ptr %4) #4
  %6 = load ptr, ptr %3, align 8, !tbaa !3
  %7 = icmp eq ptr %6, null
  br i1 %7, label %8, label %9

8:                                                ; preds = %1
  store i32 0, ptr %2, align 4
  store i32 1, ptr %5, align 4
  br label %22

9:                                                ; preds = %1
  %10 = load ptr, ptr %3, align 8, !tbaa !3
  %11 = call ptr @BIO_get_data(ptr noundef %10)
  store ptr %11, ptr %4, align 8, !tbaa !15
  %12 = load ptr, ptr %4, align 8, !tbaa !15
  %13 = icmp eq ptr %12, null
  br i1 %13, label %14, label %15

14:                                               ; preds = %9
  store i32 0, ptr %2, align 4
  store i32 1, ptr %5, align 4
  br label %22

15:                                               ; preds = %9
  %16 = load ptr, ptr %4, align 8, !tbaa !15
  %17 = getelementptr inbounds nuw %struct.enc_struct, ptr %16, i32 0, i32 5
  %18 = load ptr, ptr %17, align 8, !tbaa !17
  call void @EVP_CIPHER_CTX_free(ptr noundef %18)
  %19 = load ptr, ptr %4, align 8, !tbaa !15
  call void @CRYPTO_clear_free(ptr noundef %19, i64 noundef 4432, ptr noundef @.str.2, i32 noundef 97)
  %20 = load ptr, ptr %3, align 8, !tbaa !3
  call void @BIO_set_data(ptr noundef %20, ptr noundef null)
  %21 = load ptr, ptr %3, align 8, !tbaa !3
  call void @BIO_set_init(ptr noundef %21, i32 noundef 0)
  store i32 1, ptr %2, align 4
  store i32 1, ptr %5, align 4
  br label %22

22:                                               ; preds = %15, %14, %8
  call void @llvm.lifetime.end.p0(i64 8, ptr %4) #4
  %23 = load i32, ptr %2, align 4
  ret i32 %23
}